target datalayout = "e-m:e-p270:32:32-p271:32:32-p272:64:64-i64:64-i128:128-f80:128-n8:16:32:64-S128"
target triple = "x86_64-pc-linux-gnu"

%"class.llvm::SmallVectorBase" = type { ptr, i32, i32 }
%"class.std::unique_ptr.187" = type { %"struct.std::__uniq_ptr_data.188" }
%"struct.std::__uniq_ptr_data.188" = type { %"class.std::__uniq_ptr_impl.189" }
%"class.std::__uniq_ptr_impl.189" = type { %"class.std::tuple.190" }
%"class.std::tuple.190" = type { %"struct.std::_Tuple_impl.191" }
%"struct.std::_Tuple_impl.191" = type { %"struct.std::_Head_base.194" }
%"struct.std::_Head_base.194" = type { ptr }
%"class.llvm::AsmPrinter" = type <{ %"class.llvm::MachineFunctionPass", ptr, ptr, ptr, %"class.std::unique_ptr.159", ptr, ptr, ptr, ptr, ptr, ptr, ptr, ptr, ptr, %"class.llvm::MapVector", %"class.llvm::MapVector.175", ptr, %"class.llvm::DenseMap.184", ptr, %"class.std::unique_ptr.187", %"class.llvm::DenseMap.195", i8, [7 x i8], %"class.std::unique_ptr.75", %"class.llvm::DenseMap.198", ptr, ptr, %"class.llvm::SmallVector.201", i64, %"class.llvm::SmallVector.206", i64, %"class.llvm::StackMaps", %"class.std::unique_ptr.231", %"class.std::unique_ptr.239", ptr, %"class.std::unique_ptr.247", i32, i8, i8, i8, i8, %"class.llvm::SmallVector.255", ptr, i32, i32, i8, [7 x i8] }>
%"class.llvm::MachineFunctionPass" = type { %"class.llvm::FunctionPass.base", %"class.llvm::MachineFunctionProperties", %"class.llvm::MachineFunctionProperties", %"class.llvm::MachineFunctionProperties" }
%"class.llvm::FunctionPass.base" = type { %"class.llvm::Pass.base" }
%"class.llvm::Pass.base" = type <{ ptr, ptr, ptr, i32 }>
%"class.llvm::MachineFunctionProperties" = type { %"class.std::bitset" }
%"class.std::bitset" = type { %"struct.std::_Base_bitset" }
%"struct.std::_Base_bitset" = type { i64 }
%"class.std::unique_ptr.159" = type { %"struct.std::__uniq_ptr_data.160" }
%"struct.std::__uniq_ptr_data.160" = type { %"class.std::__uniq_ptr_impl.161" }
%"class.std::__uniq_ptr_impl.161" = type { %"class.std::tuple.162" }
%"class.std::tuple.162" = type { %"struct.std::_Tuple_impl.163" }
%"struct.std::_Tuple_impl.163" = type { %"struct.std::_Head_base.166" }
%"struct.std::_Head_base.166" = type { ptr }
%"class.llvm::MapVector" = type { %"class.llvm::DenseMap.167", %"class.llvm::SmallVector.170" }
%"class.llvm::DenseMap.167" = type <{ ptr, i32, i32, i32, [4 x i8] }>
%"class.llvm::SmallVector.170" = type { %"class.llvm::SmallVectorImpl.171" }
%"class.llvm::SmallVectorImpl.171" = type { %"class.llvm::SmallVectorTemplateBase.172" }
%"class.llvm::SmallVectorTemplateBase.172" = type { %"class.llvm::SmallVectorTemplateCommon.173" }
%"class.llvm::SmallVectorTemplateCommon.173" = type { %"class.llvm::SmallVectorBase" }
%"class.llvm::MapVector.175" = type { %"class.llvm::DenseMap.176", %"class.llvm::SmallVector.179" }
%"class.llvm::DenseMap.176" = type <{ ptr, i32, i32, i32, [4 x i8] }>
%"class.llvm::SmallVector.179" = type { %"class.llvm::SmallVectorImpl.180" }
%"class.llvm::SmallVectorImpl.180" = type { %"class.llvm::SmallVectorTemplateBase.181" }
%"class.llvm::SmallVectorTemplateBase.181" = type { %"class.llvm::SmallVectorTemplateCommon.182" }
%"class.llvm::SmallVectorTemplateCommon.182" = type { %"class.llvm::SmallVectorBase" }
%"class.llvm::DenseMap.184" = type <{ ptr, i32, i32, i32, [4 x i8] }>
%"class.llvm::DenseMap.195" = type <{ ptr, i32, i32, i32, [4 x i8] }>
%"class.std::unique_ptr.75" = type { %"struct.std::__uniq_ptr_data.76" }
%"struct.std::__uniq_ptr_data.76" = type { %"class.std::__uniq_ptr_impl.77" }
%"class.std::__uniq_ptr_impl.77" = type { %"class.std::tuple.78" }
%"class.std::tuple.78" = type { %"struct.std::_Tuple_impl.79" }
%"struct.std::_Tuple_impl.79" = type { %"struct.std::_Head_base.82" }
%"struct.std::_Head_base.82" = type { ptr }
%"class.llvm::DenseMap.198" = type <{ ptr, i32, i32, i32, [4 x i8] }>
%"class.llvm::SmallVector.201" = type { %"class.llvm::SmallVectorImpl.202", %"struct.llvm::SmallVectorStorage.205" }
%"class.llvm::SmallVectorImpl.202" = type { %"class.llvm::SmallVectorTemplateBase.203" }
%"class.llvm::SmallVectorTemplateBase.203" = type { %"class.llvm::SmallVectorTemplateCommon.204" }
%"class.llvm::SmallVectorTemplateCommon.204" = type { %"class.llvm::SmallVectorBase" }
%"struct.llvm::SmallVectorStorage.205" = type { [16 x i8] }
%"class.llvm::SmallVector.206" = type { %"class.llvm::SmallVectorImpl.207", %"struct.llvm::SmallVectorStorage.210" }
%"class.llvm::SmallVectorImpl.207" = type { %"class.llvm::SmallVectorTemplateBase.208" }
%"class.llvm::SmallVectorTemplateBase.208" = type { %"class.llvm::SmallVectorTemplateCommon.209" }
%"class.llvm::SmallVectorTemplateCommon.209" = type { %"class.llvm::SmallVectorBase" }
%"struct.llvm::SmallVectorStorage.210" = type { [8 x i8] }
%"class.llvm::StackMaps" = type { ptr, %"class.std::vector.211", %"class.llvm::MapVector.216", %"class.llvm::MapVector.225" }
%"class.std::vector.211" = type { %"struct.std::_Vector_base.212" }
%"struct.std::_Vector_base.212" = type { %"struct.std::_Vector_base<llvm::StackMaps::CallsiteInfo, std::allocator<llvm::StackMaps::CallsiteInfo>>::_Vector_impl" }
%"struct.std::_Vector_base<llvm::StackMaps::CallsiteInfo, std::allocator<llvm::StackMaps::CallsiteInfo>>::_Vector_impl" = type { %"struct.std::_Vector_base<llvm::StackMaps::CallsiteInfo, std::allocator<llvm::StackMaps::CallsiteInfo>>::_Vector_impl_data" }
%"struct.std::_Vector_base<llvm::StackMaps::CallsiteInfo, std::allocator<llvm::StackMaps::CallsiteInfo>>::_Vector_impl_data" = type { ptr, ptr, ptr }
%"class.llvm::MapVector.216" = type { %"class.llvm::DenseMap.217", %"class.llvm::SmallVector.220" }
%"class.llvm::DenseMap.217" = type <{ ptr, i32, i32, i32, [4 x i8] }>
%"class.llvm::SmallVector.220" = type { %"class.llvm::SmallVectorImpl.221" }
%"class.llvm::SmallVectorImpl.221" = type { %"class.llvm::SmallVectorTemplateBase.222" }
%"class.llvm::SmallVectorTemplateBase.222" = type { %"class.llvm::SmallVectorTemplateCommon.223" }
%"class.llvm::SmallVectorTemplateCommon.223" = type { %"class.llvm::SmallVectorBase" }
%"class.llvm::MapVector.225" = type { %"class.llvm::DenseMap.176", %"class.llvm::SmallVector.226" }
%"class.llvm::SmallVector.226" = type { %"class.llvm::SmallVectorImpl.227" }
%"class.llvm::SmallVectorImpl.227" = type { %"class.llvm::SmallVectorTemplateBase.228" }
%"class.llvm::SmallVectorTemplateBase.228" = type { %"class.llvm::SmallVectorTemplateCommon.229" }
%"class.llvm::SmallVectorTemplateCommon.229" = type { %"class.llvm::SmallVectorBase" }
%"class.std::unique_ptr.231" = type { %"struct.std::__uniq_ptr_data.232" }
%"struct.std::__uniq_ptr_data.232" = type { %"class.std::__uniq_ptr_impl.233" }
%"class.std::__uniq_ptr_impl.233" = type { %"class.std::tuple.234" }
%"class.std::tuple.234" = type { %"struct.std::_Tuple_impl.235" }
%"struct.std::_Tuple_impl.235" = type { %"struct.std::_Head_base.238" }
%"struct.std::_Head_base.238" = type { ptr }
%"class.std::unique_ptr.239" = type { %"struct.std::__uniq_ptr_data.240" }
%"struct.std::__uniq_ptr_data.240" = type { %"class.std::__uniq_ptr_impl.241" }
%"class.std::__uniq_ptr_impl.241" = type { %"class.std::tuple.242" }
%"class.std::tuple.242" = type { %"struct.std::_Tuple_impl.243" }
%"struct.std::_Tuple_impl.243" = type { %"struct.std::_Head_base.246" }
%"struct.std::_Head_base.246" = type { ptr }
%"class.std::unique_ptr.247" = type { %"struct.std::__uniq_ptr_data.248" }
%"struct.std::__uniq_ptr_data.248" = type { %"class.std::__uniq_ptr_impl.249" }
%"class.std::__uniq_ptr_impl.249" = type { %"class.std::tuple.250" }
%"class.std::tuple.250" = type { %"struct.std::_Tuple_impl.251" }
%"struct.std::_Tuple_impl.251" = type { %"struct.std::_Head_base.254" }
%"struct.std::_Head_base.254" = type { ptr }
%"class.llvm::SmallVector.255" = type { %"class.llvm::SmallVectorImpl.256", %"struct.llvm::SmallVectorStorage.259" }
%"class.llvm::SmallVectorImpl.256" = type { %"class.llvm::SmallVectorTemplateBase.257" }
%"class.llvm::SmallVectorTemplateBase.257" = type { %"class.llvm::SmallVectorTemplateCommon.258" }
%"class.llvm::SmallVectorTemplateCommon.258" = type { %"class.llvm::SmallVectorBase" }
%"struct.llvm::SmallVectorStorage.259" = type { [160 x i8] }
%"class.llvm::StringMapImpl" = type { ptr, i32, i32, i32, i32 }
%"class.std::unique_ptr.801" = type { %"struct.std::__uniq_ptr_data.802" }
%"struct.std::__uniq_ptr_data.802" = type { %"class.std::__uniq_ptr_impl.803" }
%"class.std::__uniq_ptr_impl.803" = type { %"class.std::tuple.804" }
%"class.std::tuple.804" = type { %"struct.std::_Tuple_impl.805" }
%"struct.std::_Tuple_impl.805" = type { %"struct.std::_Head_base.808" }
%"struct.std::_Head_base.808" = type { ptr }
%"class.llvm::Pass" = type <{ ptr, ptr, ptr, i32, [4 x i8] }>
%"class.llvm::ImmutablePass.base" = type { %"class.llvm::ModulePass.base" }
%"class.llvm::ModulePass.base" = type { %"class.llvm::Pass.base" }
%"class.llvm::GCModuleInfo" = type { %"class.llvm::ImmutablePass.base", %"class.llvm::SmallVector.787", %"class.llvm::StringMap.792", %"class.std::vector.793", %"class.llvm::DenseMap.798" }
%"class.llvm::SmallVector.787" = type { %"class.llvm::SmallVectorImpl.788", %"struct.llvm::SmallVectorStorage.791" }
%"class.llvm::SmallVectorImpl.788" = type { %"class.llvm::SmallVectorTemplateBase.789" }
%"class.llvm::SmallVectorTemplateBase.789" = type { %"class.llvm::SmallVectorTemplateCommon.790" }
%"class.llvm::SmallVectorTemplateCommon.790" = type { %"class.llvm::SmallVectorBase" }
%"struct.llvm::SmallVectorStorage.791" = type { [8 x i8] }
%"class.llvm::StringMap.792" = type { %"class.llvm::StringMapImpl" }
%"class.std::vector.793" = type { %"struct.std::_Vector_base.794" }
%"struct.std::_Vector_base.794" = type { %"struct.std::_Vector_base<std::unique_ptr<llvm::GCFunctionInfo>, std::allocator<std::unique_ptr<llvm::GCFunctionInfo>>>::_Vector_impl" }
%"struct.std::_Vector_base<std::unique_ptr<llvm::GCFunctionInfo>, std::allocator<std::unique_ptr<llvm::GCFunctionInfo>>>::_Vector_impl" = type { %"struct.std::_Vector_base<std::unique_ptr<llvm::GCFunctionInfo>, std::allocator<std::unique_ptr<llvm::GCFunctionInfo>>>::_Vector_impl_data" }
%"struct.std::_Vector_base<std::unique_ptr<llvm::GCFunctionInfo>, std::allocator<std::unique_ptr<llvm::GCFunctionInfo>>>::_Vector_impl_data" = type { ptr, ptr, ptr }
%"class.llvm::DenseMap.798" = type <{ ptr, i32, i32, i32, [4 x i8] }>

@_ZN4llvm12GCModuleInfo2IDE = external global i8, align 1

; Function Attrs: mustprogress nounwind uwtable
define linkonce_odr hidden noundef nonnull align 8 dereferenceable(8) ptr @_ZNSt10_Head_baseILm0EPN4llvm10GCStrategyELb0EE7_M_headERKS3_(ptr noundef nonnull align 8 dereferenceable(8) %0) #1 comdat align 2 {
  %2 = alloca ptr, align 8
  store ptr %0, ptr %2, align 8
  %3 = load ptr, ptr %2, align 8
  %4 = getelementptr inbounds nuw %"struct.std::_Head_base.808", ptr %3, i32 0, i32 0
  ret ptr %4
}

; Function Attrs: mustprogress nounwind uwtable
define linkonce_odr hidden noundef nonnull align 8 dereferenceable(8) ptr @_ZNSt11_Tuple_implILm0EJPN4llvm10GCStrategyESt14default_deleteIS1_EEE7_M_headERKS5_(ptr noundef nonnull align 8 dereferenceable(8) %0) #1 comdat align 2 {
  %2 = alloca ptr, align 8
  store ptr %0, ptr %2, align 8
  %3 = load ptr, ptr %2, align 8
  %4 = call noundef nonnull align 8 dereferenceable(8) ptr @_ZNSt10_Head_baseILm0EPN4llvm10GCStrategyELb0EE7_M_headERKS3_(ptr noundef nonnull align 8 dereferenceable(8) %3) #2
  ret ptr %4
}

; Function Attrs: mustprogress nounwind uwtable
define linkonce_odr noundef nonnull align 8 dereferenceable(8) ptr @_ZSt12__get_helperILm0EPN4llvm10GCStrategyEJSt14default_deleteIS1_EEERKT0_RKSt11_Tuple_implIXT_EJS5_DpT1_EE(ptr noundef nonnull align 8 dereferenceable(8) %0) #1 comdat {
  %2 = alloca ptr, align 8
  store ptr %0, ptr %2, align 8
  %3 = load ptr, ptr %2, align 8
  %4 = call noundef nonnull align 8 dereferenceable(8) ptr @_ZNSt11_Tuple_implILm0EJPN4llvm10GCStrategyESt14default_deleteIS1_EEE7_M_headERKS5_(ptr noundef nonnull align 8 dereferenceable(8) %3) #2
  ret ptr %4
}

; Function Attrs: mustprogress nounwind uwtable
define linkonce_odr noundef nonnull align 8 dereferenceable(8) ptr @_ZSt3getILm0EJPN4llvm10GCStrategyESt14default_deleteIS1_EEERKNSt13tuple_elementIXT_ESt5tupleIJDpT0_EEE4typeERKS9_(ptr noundef nonnull align 8 dereferenceable(8) %0) #1 comdat {
  %2 = alloca ptr, align 8
  store ptr %0, ptr %2, align 8
  %3 = load ptr, ptr %2, align 8
  %4 = call noundef nonnull align 8 dereferenceable(8) ptr @_ZSt12__get_helperILm0EPN4llvm10GCStrategyEJSt14default_deleteIS1_EEERKT0_RKSt11_Tuple_implIXT_EJS5_DpT1_EE(ptr noundef nonnull align 8 dereferenceable(8) %3) #2
  ret ptr %4
}

; Function Attrs: mustprogress nounwind uwtable
define linkonce_odr hidden noundef ptr @_ZNKSt15__uniq_ptr_implIN4llvm10GCStrategyESt14default_deleteIS1_EE6_M_ptrEv(ptr noundef nonnull align 8 dereferenceable(8) %0) #1 comdat align 2 {
  %2 = alloca ptr, align 8
  store ptr %0, ptr %2, align 8
  %3 = load ptr, ptr %2, align 8
  %4 = getelementptr inbounds nuw %"class.std::__uniq_ptr_impl.803", ptr %3, i32 0, i32 0
  %5 = call noundef nonnull align 8 dereferenceable(8) ptr @_ZSt3getILm0EJPN4llvm10GCStrategyESt14default_deleteIS1_EEERKNSt13tuple_elementIXT_ESt5tupleIJDpT0_EEE4typeERKS9_(ptr noundef nonnull align 8 dereferenceable(8) %4) #2
  %6 = load ptr, ptr %5, align 8
  ret ptr %6
}

; Function Attrs: mustprogress nounwind uwtable
define linkonce_odr hidden noundef ptr @_ZNKSt10unique_ptrIN4llvm10GCStrategyESt14default_deleteIS1_EE3getEv(ptr noundef nonnull align 8 dereferenceable(8) %0) #1 comdat align 2 {
  %2 = alloca ptr, align 8
  store ptr %0, ptr %2, align 8
  %3 = load ptr, ptr %2, align 8
  %4 = getelementptr inbounds nuw %"class.std::unique_ptr.801", ptr %3, i32 0, i32 0
  %5 = call noundef ptr @_ZNKSt15__uniq_ptr_implIN4llvm10GCStrategyESt14default_deleteIS1_EE6_M_ptrEv(ptr noundef nonnull align 8 dereferenceable(8) %4) #2
  ret ptr %5
}

; Function Attrs: mustprogress nounwind uwtable
define linkonce_odr hidden noundef ptr @_ZNK4llvm25SmallVectorTemplateCommonISt10unique_ptrINS_10GCStrategyESt14default_deleteIS2_EEvE3endEv(ptr noundef nonnull align 8 dereferenceable(16) %0) #1 comdat align 2 {
  %2 = alloca ptr, align 8
  store ptr %0, ptr %2, align 8
  %3 = load ptr, ptr %2, align 8
  %4 = call noundef ptr @_ZNK4llvm25SmallVectorTemplateCommonISt10unique_ptrINS_10GCStrategyESt14default_deleteIS2_EEvE5beginEv(ptr noundef nonnull align 8 dereferenceable(16) %3)
  %5 = call noundef i64 @_ZNK4llvm15SmallVectorBaseIjE4sizeEv(ptr noundef nonnull align 8 dereferenceable(16) %3)
  %6 = getelementptr inbounds %"class.std::unique_ptr.801", ptr %4, i64 %5
  ret ptr %6
}

; Function Attrs: mustprogress nounwind uwtable
define linkonce_odr hidden noundef ptr @_ZNK4llvm25SmallVectorTemplateCommonISt10unique_ptrINS_10GCStrategyESt14default_deleteIS2_EEvE5beginEv(ptr noundef nonnull align 8 dereferenceable(16) %0) #1 comdat align 2 {
  %2 = alloca ptr, align 8
  store ptr %0, ptr %2, align 8
  %3 = load ptr, ptr %2, align 8
  %4 = getelementptr inbounds nuw %"class.llvm::SmallVectorBase", ptr %3, i32 0, i32 0
  %5 = load ptr, ptr %4, align 8
  ret ptr %5
}

; Function Attrs: mustprogress nounwind uwtable
define linkonce_odr hidden noundef nonnull align 8 dereferenceable(44) ptr @_ZNKSt10unique_ptrIN4llvm10GCStrategyESt14default_deleteIS1_EEdeEv(ptr noundef nonnull align 8 dereferenceable(8) %0) #1 comdat align 2 {
  %2 = alloca ptr, align 8
  store ptr %0, ptr %2, align 8
  %3 = load ptr, ptr %2, align 8
  br label %4

4:                                                ; preds = %1
  br label %5

5:                                                ; preds = %4
  %6 = call noundef ptr @_ZNKSt10unique_ptrIN4llvm10GCStrategyESt14default_deleteIS1_EE3getEv(ptr noundef nonnull align 8 dereferenceable(8) %3) #2
  ret ptr %6
}

; Function Attrs: mustprogress nounwind uwtable
define linkonce_odr hidden noundef ptr @_ZNK4llvm12GCModuleInfo3endEv(ptr noundef nonnull align 8 dereferenceable(128) %0) #1 comdat align 2 {
  %2 = alloca ptr, align 8
  store ptr %0, ptr %2, align 8
  %3 = load ptr, ptr %2, align 8
  %4 = getelementptr inbounds nuw %"class.llvm::GCModuleInfo", ptr %3, i32 0, i32 1
  %5 = call noundef ptr @_ZNK4llvm25SmallVectorTemplateCommonISt10unique_ptrINS_10GCStrategyESt14default_deleteIS2_EEvE3endEv(ptr noundef nonnull align 8 dereferenceable(16) %4)
  ret ptr %5
}

; Function Attrs: mustprogress nounwind uwtable
define linkonce_odr hidden noundef ptr @_ZNK4llvm12GCModuleInfo5beginEv(ptr noundef nonnull align 8 dereferenceable(128) %0) #1 comdat align 2 {
  %2 = alloca ptr, align 8
  store ptr %0, ptr %2, align 8
  %3 = load ptr, ptr %2, align 8
  %4 = getelementptr inbounds nuw %"class.llvm::GCModuleInfo", ptr %3, i32 0, i32 1
  %5 = call noundef ptr @_ZNK4llvm25SmallVectorTemplateCommonISt10unique_ptrINS_10GCStrategyESt14default_deleteIS2_EEvE5beginEv(ptr noundef nonnull align 8 dereferenceable(16) %4)
  ret ptr %5
}

; Function Attrs: mustprogress nounwind uwtable
define linkonce_odr noundef ptr @_ZNK4llvm4Pass22getAnalysisIfAvailableINS_12GCModuleInfoEEEPT_v(ptr noundef nonnull align 8 dereferenceable(28) %0) #1 comdat align 2 {
  %2 = alloca ptr, align 8
  %3 = alloca ptr, align 8
  %4 = alloca ptr, align 8
  %5 = alloca ptr, align 8
  store ptr %0, ptr %3, align 8
  %6 = load ptr, ptr %3, align 8
  store ptr @_ZN4llvm12GCModuleInfo2IDE, ptr %4, align 8
  %7 = getelementptr inbounds nuw %"class.llvm::Pass", ptr %6, i32 0, i32 1
  %8 = load ptr, ptr %7, align 8
  %9 = load ptr, ptr %4, align 8
  %10 = call noundef ptr @_ZNK4llvm16AnalysisResolver22getAnalysisIfAvailableEPKv(ptr noundef nonnull align 8 dereferenceable(32) %8, ptr noundef %9)
  store ptr %10, ptr %5, align 8
  %11 = load ptr, ptr %5, align 8
  %12 = icmp ne ptr %11, null
  br i1 %12, label %14, label %13

13:                                               ; preds = %1
  store ptr null, ptr %2, align 8
  br label %21

14:                                               ; preds = %1
  %15 = load ptr, ptr %5, align 8
  %16 = load ptr, ptr %4, align 8
  %17 = load ptr, ptr %15, align 8
  %18 = getelementptr inbounds ptr, ptr %17, i64 12
  %19 = load ptr, ptr %18, align 8
  %20 = call noundef ptr %19(ptr noundef nonnull align 8 dereferenceable(28) %15, ptr noundef %16)
  store ptr %20, ptr %2, align 8
  br label %21

21:                                               ; preds = %14, %13
  %22 = load ptr, ptr %2, align 8
  ret ptr %22
}

; Function Attrs: mustprogress nounwind uwtable
define dso_local void @_ZN4llvm10AsmPrinter13emitStackMapsEv(ptr noundef nonnull align 8 dereferenceable(785) %0) #1 align 2 {
  %2 = alloca ptr, align 8
  %3 = alloca ptr, align 8
  %4 = alloca i8, align 1
  %5 = alloca ptr, align 8
  %6 = alloca ptr, align 8
  %7 = alloca ptr, align 8
  %8 = alloca ptr, align 8
  %9 = alloca ptr, align 8
  store ptr %0, ptr %2, align 8
  %10 = load ptr, ptr %2, align 8
  %11 = call noundef ptr @_ZNK4llvm4Pass22getAnalysisIfAvailableINS_12GCModuleInfoEEEPT_v(ptr noundef nonnull align 8 dereferenceable(28) %10)
  store ptr %11, ptr %3, align 8
  store i8 0, ptr %4, align 1
  %12 = load ptr, ptr %3, align 8
  %13 = call noundef ptr @_ZNK4llvm12GCModuleInfo5beginEv(ptr noundef nonnull align 8 dereferenceable(128) %12)
  %14 = load ptr, ptr %3, align 8
  %15 = call noundef ptr @_ZNK4llvm12GCModuleInfo3endEv(ptr noundef nonnull align 8 dereferenceable(128) %14)
  %16 = icmp eq ptr %13, %15
  br i1 %16, label %17, label %18

17:                                               ; preds = %1
  store i8 1, ptr %4, align 1
  br label %49

18:                                               ; preds = %1
  %19 = load ptr, ptr %3, align 8
  store ptr %19, ptr %5, align 8
  %20 = load ptr, ptr %5, align 8
  %21 = call noundef ptr @_ZNK4llvm12GCModuleInfo5beginEv(ptr noundef nonnull align 8 dereferenceable(128) %20)
  store ptr %21, ptr %6, align 8
  %22 = load ptr, ptr %5, align 8
  %23 = call noundef ptr @_ZNK4llvm12GCModuleInfo3endEv(ptr noundef nonnull align 8 dereferenceable(128) %22)
  store ptr %23, ptr %7, align 8
  br label %24

24:                                               ; preds = %45, %18
  %25 = load ptr, ptr %6, align 8
  %26 = load ptr, ptr %7, align 8
  %27 = icmp ne ptr %25, %26
  br i1 %27, label %28, label %48

28:                                               ; preds = %24
  %29 = load ptr, ptr %6, align 8
  store ptr %29, ptr %8, align 8
  %30 = load ptr, ptr %8, align 8
  %31 = call noundef nonnull align 8 dereferenceable(44) ptr @_ZNKSt10unique_ptrIN4llvm10GCStrategyESt14default_deleteIS1_EEdeEv(ptr noundef nonnull align 8 dereferenceable(8) %30) #2
  %32 = call noundef ptr @_ZN4llvm10AsmPrinter20getOrCreateGCPrinterERNS_10GCStrategyE(ptr noundef nonnull align 8 dereferenceable(785) %10, ptr noundef nonnull align 8 dereferenceable(44) %31)
  store ptr %32, ptr %9, align 8
  %33 = load ptr, ptr %9, align 8
  %34 = icmp ne ptr %33, null
  br i1 %34, label %35, label %44

35:                                               ; preds = %28
  %36 = load ptr, ptr %9, align 8
  %37 = getelementptr inbounds nuw %"class.llvm::AsmPrinter", ptr %10, i32 0, i32 31
  %38 = load ptr, ptr %36, align 8
  %39 = getelementptr inbounds ptr, ptr %38, i64 4
  %40 = load ptr, ptr %39, align 8
  %41 = call noundef zeroext i1 %40(ptr noundef nonnull align 8 dereferenceable(16) %36, ptr noundef nonnull align 8 dereferenceable(112) %37, ptr noundef nonnull align 8 dereferenceable(785) %10)
  br i1 %41, label %42, label %43

42:                                               ; preds = %35
  br label %45

43:                                               ; preds = %35
  br label %44

44:                                               ; preds = %43, %28
  store i8 1, ptr %4, align 1
  br label %45

45:                                               ; preds = %44, %42
  %46 = load ptr, ptr %6, align 8
  %47 = getelementptr inbounds %"class.std::unique_ptr.801", ptr %46, i32 1
  store ptr %47, ptr %6, align 8
  br label %24

48:                                               ; preds = %24
  br label %49

49:                                               ; preds = %48, %17
  %50 = load i8, ptr %4, align 1
  %51 = trunc i8 %50 to i1
  br i1 %51, label %52, label %54

52:                                               ; preds = %49
  %53 = getelementptr inbounds nuw %"class.llvm::AsmPrinter", ptr %10, i32 0, i32 31
  call void @_ZN4llvm9StackMaps26serializeToStackMapSectionEv(ptr noundef nonnull align 8 dereferenceable(112) %53)
  br label %54

54:                                               ; preds = %52, %49
  ret void
}