; Function Attrs: mustprogress nounwind uwtable
define dso_local void @_ZN4llvm10AsmPrinter13emitStackMapsEv(ptr noundef nonnull align 8 dereferenceable(785) %0) local_unnamed_addr #0 align 2 {
  %2 = getelementptr inbounds nuw i8, ptr %0, i64 8
  %3 = load ptr, ptr %2, align 8
  %4 = tail call noundef ptr @_ZNK4llvm16AnalysisResolver22getAnalysisIfAvailableEPKv(ptr noundef nonnull align 8 dereferenceable(32) %3, ptr noundef nonnull @_ZN4llvm12GCModuleInfo2IDE) #33
  %.not.i = icmp eq ptr %4, null
  br i1 %.not.i, label %_ZNK4llvm4Pass22getAnalysisIfAvailableINS_12GCModuleInfoEEEPT_v.exit, label %5

5:                                                ; preds = %1
  %6 = load ptr, ptr %4, align 8
  %7 = getelementptr inbounds i8, ptr %6, i64 96
  %8 = load ptr, ptr %7, align 8
  %9 = tail call noundef ptr %8(ptr noundef nonnull align 8 dereferenceable(28) %4, ptr noundef nonnull @_ZN4llvm12GCModuleInfo2IDE) #33
  br label %_ZNK4llvm4Pass22getAnalysisIfAvailableINS_12GCModuleInfoEEEPT_v.exit

_ZNK4llvm4Pass22getAnalysisIfAvailableINS_12GCModuleInfoEEEPT_v.exit: ; preds = %1, %5
  %.0.i = phi ptr [ %9, %5 ], [ null, %1 ]
  %10 = getelementptr inbounds nuw i8, ptr %.0.i, i64 32
  %11 = tail call noundef i64 @_ZNK4llvm15SmallVectorBaseIjE4sizeEv(ptr noundef nonnull align 8 dereferenceable(16) %10) #33
  %12 = icmp eq i64 %11, 0
  br i1 %12, label %.thread, label %13

13:                                               ; preds = %_ZNK4llvm4Pass22getAnalysisIfAvailableINS_12GCModuleInfoEEEPT_v.exit
  %14 = load ptr, ptr %10, align 8
  %15 = tail call noundef i64 @_ZNK4llvm15SmallVectorBaseIjE4sizeEv(ptr noundef nonnull align 8 dereferenceable(16) %10) #33
  %16 = getelementptr inbounds %"class.std::unique_ptr.801", ptr %14, i64 %15
  %.not17 = icmp eq i64 %15, 0
  br i1 %.not17, label %.critedge, label %.lr.ph

.lr.ph:                                           ; preds = %13
  %17 = getelementptr inbounds nuw i8, ptr %0, i64 440
  br label %.outer

.outer:                                           ; preds = %.thread20, %.lr.ph
  %.119.ph = phi i1 [ true, %.thread20 ], [ false, %.lr.ph ]
  %.01318.ph = phi ptr [ %28, %.thread20 ], [ %14, %.lr.ph ]
  br label %18

18:                                               ; preds = %.outer, %26
  %.01318 = phi ptr [ %27, %26 ], [ %.01318.ph, %.outer ]
  %19 = load ptr, ptr %.01318, align 8
  %20 = tail call noundef ptr @_ZN4llvm10AsmPrinter20getOrCreateGCPrinterERNS_10GCStrategyE(ptr noundef nonnull align 8 dereferenceable(785) %0, ptr noundef nonnull align 8 dereferenceable(44) %19)
  %.not15 = icmp eq ptr %20, null
  br i1 %.not15, label %.thread20, label %21

21:                                               ; preds = %18
  %22 = load ptr, ptr %20, align 8
  %23 = getelementptr inbounds i8, ptr %22, i64 32
  %24 = load ptr, ptr %23, align 8
  %25 = tail call noundef zeroext i1 %24(ptr noundef nonnull align 8 dereferenceable(16) %20, ptr noundef nonnull align 8 dereferenceable(112) %17, ptr noundef nonnull align 8 dereferenceable(785) %0) #33
  br i1 %25, label %26, label %.thread20

26:                                               ; preds = %21
  %27 = getelementptr inbounds i8, ptr %.01318, i64 8
  %.not = icmp eq ptr %27, %16
  br i1 %.not, label %._crit_edge, label %18

.thread20:                                        ; preds = %18, %21
  %28 = getelementptr inbounds i8, ptr %.01318, i64 8
  %.not22 = icmp eq ptr %28, %16
  br i1 %.not22, label %.thread, label %.outer

._crit_edge:                                      ; preds = %26
  br i1 %.119.ph, label %.thread, label %.critedge

.thread:                                          ; preds = %.thread20, %_ZNK4llvm4Pass22getAnalysisIfAvailableINS_12GCModuleInfoEEEPT_v.exit, %._crit_edge
  %29 = getelementptr inbounds nuw i8, ptr %0, i64 440
  tail call void @_ZN4llvm9StackMaps26serializeToStackMapSectionEv(ptr noundef nonnull align 8 dereferenceable(112) %29) #33
  br label %.critedge

.critedge:                                        ; preds = %13, %.thread, %._crit_edge
  ret void
}